target datalayout = "e-m:e-p270:32:32-p271:32:32-p272:64:64-i64:64-i128:128-f80:128-n8:16:32:64-S128"
target triple = "x86_64-pc-linux-gnu"

@.str.31 = private unnamed_addr constant [36 x i8] c"Color must be of the format #RRGGBB\00", align 1

; Function Attrs: null_pointer_is_valid sspstrong uwtable
define zeroext i1 @uat_fld_chk_color(ptr noundef %0, ptr noundef %1, i32 noundef %2, ptr noundef %3, ptr noundef %4, ptr noundef %5) #0 {
  %7 = alloca i1, align 1
  %8 = alloca ptr, align 8
  %9 = alloca ptr, align 8
  %10 = alloca i32, align 4
  %11 = alloca ptr, align 8
  %12 = alloca ptr, align 8
  %13 = alloca ptr, align 8
  store ptr %0, ptr %8, align 8
  store ptr %1, ptr %9, align 8
  store i32 %2, ptr %10, align 4
  store ptr %3, ptr %11, align 8
  store ptr %4, ptr %12, align 8
  store ptr %5, ptr %13, align 8
  %14 = load i32, ptr %10, align 4
  %15 = icmp ne i32 %14, 7
  br i1 %15, label %21, label %16

16:                                               ; preds = %6
  %17 = load ptr, ptr %9, align 8
  %18 = load i8, ptr %17, align 1
  %19 = sext i8 %18 to i32
  %20 = icmp ne i32 %19, 35
  br i1 %20, label %21, label %24

21:                                               ; preds = %16, %6
  %22 = call noalias ptr @g_strdup(ptr noundef @.str.31)
  %23 = load ptr, ptr %13, align 8
  store ptr %22, ptr %23, align 8
  store i1 false, ptr %7, align 1
  br label %31

24:                                               ; preds = %16
  %25 = load ptr, ptr %9, align 8
  %26 = getelementptr i8, ptr %25, i64 1
  %27 = load i32, ptr %10, align 4
  %28 = sub i32 %27, 1
  %29 = load ptr, ptr %13, align 8
  %30 = call zeroext i1 @uat_fld_chk_num(i32 noundef 16, ptr noundef %26, i32 noundef %28, ptr noundef %29)
  store i1 %30, ptr %7, align 1
  br label %31

31:                                               ; preds = %24, %21
  %32 = load i1, ptr %7, align 1
  ret i1 %32
}