; Function Attrs: null_pointer_is_valid sspstrong uwtable
define noundef zeroext i1 @uat_fld_chk_color(ptr noundef readnone captures(none) %0, ptr noundef %1, i32 noundef %2, ptr noundef readnone captures(none) %3, ptr noundef readnone captures(none) %4, ptr noundef writeonly captures(none) %5) local_unnamed_addr #0 {
  %.not = icmp eq i32 %2, 7
  br i1 %.not, label %7, label %9

7:                                                ; preds = %6
  %8 = load i8, ptr %1, align 1
  %.not7 = icmp eq i8 %8, 35
  br i1 %.not7, label %11, label %9

9:                                                ; preds = %7, %6
  %10 = tail call noalias ptr @g_strdup(ptr noundef nonnull @.str.31)
  store ptr %10, ptr %5, align 8
  br label %14

11:                                               ; preds = %7
  %12 = getelementptr i8, ptr %1, i64 1
  %13 = tail call fastcc zeroext i1 @uat_fld_chk_num(i32 noundef 16, ptr noundef %12, i32 noundef 6, ptr noundef %5)
  br label %14

14:                                               ; preds = %11, %9
  %.0 = phi i1 [ false, %9 ], [ %13, %11 ]
  ret i1 %.0
}